target datalayout = "e-m:e-p270:32:32-p271:32:32-p272:64:64-i64:64-i128:128-f80:128-n8:16:32:64-S128"
target triple = "x86_64-pc-linux-gnu"

%struct.sha_state_st = type { %union.anon.0, i32, i32, [64 x i8], i32 }
%union.anon.0 = type { [5 x i32] }

; Function Attrs: nounwind uwtable
define internal void @tls1_sha1_final_raw(ptr noundef %0, ptr noundef %1) #0 {
  %3 = alloca ptr, align 8
  %4 = alloca ptr, align 8
  %5 = alloca ptr, align 8
  store ptr %0, ptr %3, align 8, !tbaa !26
  store ptr %1, ptr %4, align 8, !tbaa !11
  call void @llvm.lifetime.start.p0(i64 8, ptr %5) #6
  %6 = load ptr, ptr %3, align 8, !tbaa !26
  store ptr %6, ptr %5, align 8, !tbaa !33
  %7 = load ptr, ptr %5, align 8, !tbaa !33
  %8 = getelementptr inbounds nuw %struct.sha_state_st, ptr %7, i32 0, i32 0
  %9 = getelementptr inbounds [5 x i32], ptr %8, i64 0, i64 0
  %10 = load i32, ptr %9, align 4, !tbaa !15
  %11 = lshr i32 %10, 24
  %12 = trunc i32 %11 to i8
  %13 = load ptr, ptr %4, align 8, !tbaa !11
  %14 = getelementptr inbounds nuw i8, ptr %13, i32 1
  store ptr %14, ptr %4, align 8, !tbaa !11
  store i8 %12, ptr %13, align 1, !tbaa !15
  %15 = load ptr, ptr %5, align 8, !tbaa !33
  %16 = getelementptr inbounds nuw %struct.sha_state_st, ptr %15, i32 0, i32 0
  %17 = getelementptr inbounds [5 x i32], ptr %16, i64 0, i64 0
  %18 = load i32, ptr %17, align 4, !tbaa !15
  %19 = lshr i32 %18, 16
  %20 = trunc i32 %19 to i8
  %21 = load ptr, ptr %4, align 8, !tbaa !11
  %22 = getelementptr inbounds nuw i8, ptr %21, i32 1
  store ptr %22, ptr %4, align 8, !tbaa !11
  store i8 %20, ptr %21, align 1, !tbaa !15
  %23 = load ptr, ptr %5, align 8, !tbaa !33
  %24 = getelementptr inbounds nuw %struct.sha_state_st, ptr %23, i32 0, i32 0
  %25 = getelementptr inbounds [5 x i32], ptr %24, i64 0, i64 0
  %26 = load i32, ptr %25, align 4, !tbaa !15
  %27 = lshr i32 %26, 8
  %28 = trunc i32 %27 to i8
  %29 = load ptr, ptr %4, align 8, !tbaa !11
  %30 = getelementptr inbounds nuw i8, ptr %29, i32 1
  store ptr %30, ptr %4, align 8, !tbaa !11
  store i8 %28, ptr %29, align 1, !tbaa !15
  %31 = load ptr, ptr %5, align 8, !tbaa !33
  %32 = getelementptr inbounds nuw %struct.sha_state_st, ptr %31, i32 0, i32 0
  %33 = getelementptr inbounds [5 x i32], ptr %32, i64 0, i64 0
  %34 = load i32, ptr %33, align 4, !tbaa !15
  %35 = trunc i32 %34 to i8
  %36 = load ptr, ptr %4, align 8, !tbaa !11
  %37 = getelementptr inbounds nuw i8, ptr %36, i32 1
  store ptr %37, ptr %4, align 8, !tbaa !11
  store i8 %35, ptr %36, align 1, !tbaa !15
  %38 = load ptr, ptr %5, align 8, !tbaa !33
  %39 = getelementptr inbounds nuw %struct.sha_state_st, ptr %38, i32 0, i32 0
  %40 = getelementptr inbounds [5 x i32], ptr %39, i64 0, i64 1
  %41 = load i32, ptr %40, align 4, !tbaa !15
  %42 = lshr i32 %41, 24
  %43 = trunc i32 %42 to i8
  %44 = load ptr, ptr %4, align 8, !tbaa !11
  %45 = getelementptr inbounds nuw i8, ptr %44, i32 1
  store ptr %45, ptr %4, align 8, !tbaa !11
  store i8 %43, ptr %44, align 1, !tbaa !15
  %46 = load ptr, ptr %5, align 8, !tbaa !33
  %47 = getelementptr inbounds nuw %struct.sha_state_st, ptr %46, i32 0, i32 0
  %48 = getelementptr inbounds [5 x i32], ptr %47, i64 0, i64 1
  %49 = load i32, ptr %48, align 4, !tbaa !15
  %50 = lshr i32 %49, 16
  %51 = trunc i32 %50 to i8
  %52 = load ptr, ptr %4, align 8, !tbaa !11
  %53 = getelementptr inbounds nuw i8, ptr %52, i32 1
  store ptr %53, ptr %4, align 8, !tbaa !11
  store i8 %51, ptr %52, align 1, !tbaa !15
  %54 = load ptr, ptr %5, align 8, !tbaa !33
  %55 = getelementptr inbounds nuw %struct.sha_state_st, ptr %54, i32 0, i32 0
  %56 = getelementptr inbounds [5 x i32], ptr %55, i64 0, i64 1
  %57 = load i32, ptr %56, align 4, !tbaa !15
  %58 = lshr i32 %57, 8
  %59 = trunc i32 %58 to i8
  %60 = load ptr, ptr %4, align 8, !tbaa !11
  %61 = getelementptr inbounds nuw i8, ptr %60, i32 1
  store ptr %61, ptr %4, align 8, !tbaa !11
  store i8 %59, ptr %60, align 1, !tbaa !15
  %62 = load ptr, ptr %5, align 8, !tbaa !33
  %63 = getelementptr inbounds nuw %struct.sha_state_st, ptr %62, i32 0, i32 0
  %64 = getelementptr inbounds [5 x i32], ptr %63, i64 0, i64 1
  %65 = load i32, ptr %64, align 4, !tbaa !15
  %66 = trunc i32 %65 to i8
  %67 = load ptr, ptr %4, align 8, !tbaa !11
  %68 = getelementptr inbounds nuw i8, ptr %67, i32 1
  store ptr %68, ptr %4, align 8, !tbaa !11
  store i8 %66, ptr %67, align 1, !tbaa !15
  %69 = load ptr, ptr %5, align 8, !tbaa !33
  %70 = getelementptr inbounds nuw %struct.sha_state_st, ptr %69, i32 0, i32 0
  %71 = getelementptr inbounds [5 x i32], ptr %70, i64 0, i64 2
  %72 = load i32, ptr %71, align 4, !tbaa !15
  %73 = lshr i32 %72, 24
  %74 = trunc i32 %73 to i8
  %75 = load ptr, ptr %4, align 8, !tbaa !11
  %76 = getelementptr inbounds nuw i8, ptr %75, i32 1
  store ptr %76, ptr %4, align 8, !tbaa !11
  store i8 %74, ptr %75, align 1, !tbaa !15
  %77 = load ptr, ptr %5, align 8, !tbaa !33
  %78 = getelementptr inbounds nuw %struct.sha_state_st, ptr %77, i32 0, i32 0
  %79 = getelementptr inbounds [5 x i32], ptr %78, i64 0, i64 2
  %80 = load i32, ptr %79, align 4, !tbaa !15
  %81 = lshr i32 %80, 16
  %82 = trunc i32 %81 to i8
  %83 = load ptr, ptr %4, align 8, !tbaa !11
  %84 = getelementptr inbounds nuw i8, ptr %83, i32 1
  store ptr %84, ptr %4, align 8, !tbaa !11
  store i8 %82, ptr %83, align 1, !tbaa !15
  %85 = load ptr, ptr %5, align 8, !tbaa !33
  %86 = getelementptr inbounds nuw %struct.sha_state_st, ptr %85, i32 0, i32 0
  %87 = getelementptr inbounds [5 x i32], ptr %86, i64 0, i64 2
  %88 = load i32, ptr %87, align 4, !tbaa !15
  %89 = lshr i32 %88, 8
  %90 = trunc i32 %89 to i8
  %91 = load ptr, ptr %4, align 8, !tbaa !11
  %92 = getelementptr inbounds nuw i8, ptr %91, i32 1
  store ptr %92, ptr %4, align 8, !tbaa !11
  store i8 %90, ptr %91, align 1, !tbaa !15
  %93 = load ptr, ptr %5, align 8, !tbaa !33
  %94 = getelementptr inbounds nuw %struct.sha_state_st, ptr %93, i32 0, i32 0
  %95 = getelementptr inbounds [5 x i32], ptr %94, i64 0, i64 2
  %96 = load i32, ptr %95, align 4, !tbaa !15
  %97 = trunc i32 %96 to i8
  %98 = load ptr, ptr %4, align 8, !tbaa !11
  %99 = getelementptr inbounds nuw i8, ptr %98, i32 1
  store ptr %99, ptr %4, align 8, !tbaa !11
  store i8 %97, ptr %98, align 1, !tbaa !15
  %100 = load ptr, ptr %5, align 8, !tbaa !33
  %101 = getelementptr inbounds nuw %struct.sha_state_st, ptr %100, i32 0, i32 0
  %102 = getelementptr inbounds [5 x i32], ptr %101, i64 0, i64 3
  %103 = load i32, ptr %102, align 4, !tbaa !15
  %104 = lshr i32 %103, 24
  %105 = trunc i32 %104 to i8
  %106 = load ptr, ptr %4, align 8, !tbaa !11
  %107 = getelementptr inbounds nuw i8, ptr %106, i32 1
  store ptr %107, ptr %4, align 8, !tbaa !11
  store i8 %105, ptr %106, align 1, !tbaa !15
  %108 = load ptr, ptr %5, align 8, !tbaa !33
  %109 = getelementptr inbounds nuw %struct.sha_state_st, ptr %108, i32 0, i32 0
  %110 = getelementptr inbounds [5 x i32], ptr %109, i64 0, i64 3
  %111 = load i32, ptr %110, align 4, !tbaa !15
  %112 = lshr i32 %111, 16
  %113 = trunc i32 %112 to i8
  %114 = load ptr, ptr %4, align 8, !tbaa !11
  %115 = getelementptr inbounds nuw i8, ptr %114, i32 1
  store ptr %115, ptr %4, align 8, !tbaa !11
  store i8 %113, ptr %114, align 1, !tbaa !15
  %116 = load ptr, ptr %5, align 8, !tbaa !33
  %117 = getelementptr inbounds nuw %struct.sha_state_st, ptr %116, i32 0, i32 0
  %118 = getelementptr inbounds [5 x i32], ptr %117, i64 0, i64 3
  %119 = load i32, ptr %118, align 4, !tbaa !15
  %120 = lshr i32 %119, 8
  %121 = trunc i32 %120 to i8
  %122 = load ptr, ptr %4, align 8, !tbaa !11
  %123 = getelementptr inbounds nuw i8, ptr %122, i32 1
  store ptr %123, ptr %4, align 8, !tbaa !11
  store i8 %121, ptr %122, align 1, !tbaa !15
  %124 = load ptr, ptr %5, align 8, !tbaa !33
  %125 = getelementptr inbounds nuw %struct.sha_state_st, ptr %124, i32 0, i32 0
  %126 = getelementptr inbounds [5 x i32], ptr %125, i64 0, i64 3
  %127 = load i32, ptr %126, align 4, !tbaa !15
  %128 = trunc i32 %127 to i8
  %129 = load ptr, ptr %4, align 8, !tbaa !11
  %130 = getelementptr inbounds nuw i8, ptr %129, i32 1
  store ptr %130, ptr %4, align 8, !tbaa !11
  store i8 %128, ptr %129, align 1, !tbaa !15
  %131 = load ptr, ptr %5, align 8, !tbaa !33
  %132 = getelementptr inbounds nuw %struct.sha_state_st, ptr %131, i32 0, i32 0
  %133 = getelementptr inbounds [5 x i32], ptr %132, i64 0, i64 4
  %134 = load i32, ptr %133, align 4, !tbaa !15
  %135 = lshr i32 %134, 24
  %136 = trunc i32 %135 to i8
  %137 = load ptr, ptr %4, align 8, !tbaa !11
  %138 = getelementptr inbounds nuw i8, ptr %137, i32 1
  store ptr %138, ptr %4, align 8, !tbaa !11
  store i8 %136, ptr %137, align 1, !tbaa !15
  %139 = load ptr, ptr %5, align 8, !tbaa !33
  %140 = getelementptr inbounds nuw %struct.sha_state_st, ptr %139, i32 0, i32 0
  %141 = getelementptr inbounds [5 x i32], ptr %140, i64 0, i64 4
  %142 = load i32, ptr %141, align 4, !tbaa !15
  %143 = lshr i32 %142, 16
  %144 = trunc i32 %143 to i8
  %145 = load ptr, ptr %4, align 8, !tbaa !11
  %146 = getelementptr inbounds nuw i8, ptr %145, i32 1
  store ptr %146, ptr %4, align 8, !tbaa !11
  store i8 %144, ptr %145, align 1, !tbaa !15
  %147 = load ptr, ptr %5, align 8, !tbaa !33
  %148 = getelementptr inbounds nuw %struct.sha_state_st, ptr %147, i32 0, i32 0
  %149 = getelementptr inbounds [5 x i32], ptr %148, i64 0, i64 4
  %150 = load i32, ptr %149, align 4, !tbaa !15
  %151 = lshr i32 %150, 8
  %152 = trunc i32 %151 to i8
  %153 = load ptr, ptr %4, align 8, !tbaa !11
  %154 = getelementptr inbounds nuw i8, ptr %153, i32 1
  store ptr %154, ptr %4, align 8, !tbaa !11
  store i8 %152, ptr %153, align 1, !tbaa !15
  %155 = load ptr, ptr %5, align 8, !tbaa !33
  %156 = getelementptr inbounds nuw %struct.sha_state_st, ptr %155, i32 0, i32 0
  %157 = getelementptr inbounds [5 x i32], ptr %156, i64 0, i64 4
  %158 = load i32, ptr %157, align 4, !tbaa !15
  %159 = trunc i32 %158 to i8
  %160 = load ptr, ptr %4, align 8, !tbaa !11
  %161 = getelementptr inbounds nuw i8, ptr %160, i32 1
  store ptr %161, ptr %4, align 8, !tbaa !11
  store i8 %159, ptr %160, align 1, !tbaa !15
  call void @llvm.lifetime.end.p0(i64 8, ptr %5) #6
  ret void
}