; Function Attrs: mustprogress nofree norecurse nosync nounwind willreturn memory(argmem: readwrite) uwtable
define internal void @tls1_sha1_final_raw(ptr noundef readonly captures(none) %0, ptr noundef writeonly captures(none) initializes((0, 20)) %1) unnamed_addr #6 {
  %3 = load i32, ptr %0, align 4, !tbaa !6
  %4 = lshr i32 %3, 24
  %5 = trunc nuw i32 %4 to i8
  %6 = getelementptr inbounds nuw i8, ptr %1, i64 1
  store i8 %5, ptr %1, align 1, !tbaa !6
  %7 = load i32, ptr %0, align 4, !tbaa !6
  %8 = lshr i32 %7, 16
  %9 = trunc i32 %8 to i8
  %10 = getelementptr inbounds nuw i8, ptr %1, i64 2
  store i8 %9, ptr %6, align 1, !tbaa !6
  %11 = load i32, ptr %0, align 4, !tbaa !6
  %12 = lshr i32 %11, 8
  %13 = trunc i32 %12 to i8
  %14 = getelementptr inbounds nuw i8, ptr %1, i64 3
  store i8 %13, ptr %10, align 1, !tbaa !6
  %15 = load i32, ptr %0, align 4, !tbaa !6
  %16 = trunc i32 %15 to i8
  %17 = getelementptr inbounds nuw i8, ptr %1, i64 4
  store i8 %16, ptr %14, align 1, !tbaa !6
  %18 = getelementptr inbounds nuw i8, ptr %0, i64 4
  %19 = load i32, ptr %18, align 4, !tbaa !6
  %20 = lshr i32 %19, 24
  %21 = trunc nuw i32 %20 to i8
  %22 = getelementptr inbounds nuw i8, ptr %1, i64 5
  store i8 %21, ptr %17, align 1, !tbaa !6
  %23 = load i32, ptr %18, align 4, !tbaa !6
  %24 = lshr i32 %23, 16
  %25 = trunc i32 %24 to i8
  %26 = getelementptr inbounds nuw i8, ptr %1, i64 6
  store i8 %25, ptr %22, align 1, !tbaa !6
  %27 = load i32, ptr %18, align 4, !tbaa !6
  %28 = lshr i32 %27, 8
  %29 = trunc i32 %28 to i8
  %30 = getelementptr inbounds nuw i8, ptr %1, i64 7
  store i8 %29, ptr %26, align 1, !tbaa !6
  %31 = load i32, ptr %18, align 4, !tbaa !6
  %32 = trunc i32 %31 to i8
  %33 = getelementptr inbounds nuw i8, ptr %1, i64 8
  store i8 %32, ptr %30, align 1, !tbaa !6
  %34 = getelementptr inbounds nuw i8, ptr %0, i64 8
  %35 = load i32, ptr %34, align 4, !tbaa !6
  %36 = lshr i32 %35, 24
  %37 = trunc nuw i32 %36 to i8
  %38 = getelementptr inbounds nuw i8, ptr %1, i64 9
  store i8 %37, ptr %33, align 1, !tbaa !6
  %39 = load i32, ptr %34, align 4, !tbaa !6
  %40 = lshr i32 %39, 16
  %41 = trunc i32 %40 to i8
  %42 = getelementptr inbounds nuw i8, ptr %1, i64 10
  store i8 %41, ptr %38, align 1, !tbaa !6
  %43 = load i32, ptr %34, align 4, !tbaa !6
  %44 = lshr i32 %43, 8
  %45 = trunc i32 %44 to i8
  %46 = getelementptr inbounds nuw i8, ptr %1, i64 11
  store i8 %45, ptr %42, align 1, !tbaa !6
  %47 = load i32, ptr %34, align 4, !tbaa !6
  %48 = trunc i32 %47 to i8
  %49 = getelementptr inbounds nuw i8, ptr %1, i64 12
  store i8 %48, ptr %46, align 1, !tbaa !6
  %50 = getelementptr inbounds nuw i8, ptr %0, i64 12
  %51 = load i32, ptr %50, align 4, !tbaa !6
  %52 = lshr i32 %51, 24
  %53 = trunc nuw i32 %52 to i8
  %54 = getelementptr inbounds nuw i8, ptr %1, i64 13
  store i8 %53, ptr %49, align 1, !tbaa !6
  %55 = load i32, ptr %50, align 4, !tbaa !6
  %56 = lshr i32 %55, 16
  %57 = trunc i32 %56 to i8
  %58 = getelementptr inbounds nuw i8, ptr %1, i64 14
  store i8 %57, ptr %54, align 1, !tbaa !6
  %59 = load i32, ptr %50, align 4, !tbaa !6
  %60 = lshr i32 %59, 8
  %61 = trunc i32 %60 to i8
  %62 = getelementptr inbounds nuw i8, ptr %1, i64 15
  store i8 %61, ptr %58, align 1, !tbaa !6
  %63 = load i32, ptr %50, align 4, !tbaa !6
  %64 = trunc i32 %63 to i8
  %65 = getelementptr inbounds nuw i8, ptr %1, i64 16
  store i8 %64, ptr %62, align 1, !tbaa !6
  %66 = getelementptr inbounds nuw i8, ptr %0, i64 16
  %67 = load i32, ptr %66, align 4, !tbaa !6
  %68 = lshr i32 %67, 24
  %69 = trunc nuw i32 %68 to i8
  %70 = getelementptr inbounds nuw i8, ptr %1, i64 17
  store i8 %69, ptr %65, align 1, !tbaa !6
  %71 = load i32, ptr %66, align 4, !tbaa !6
  %72 = lshr i32 %71, 16
  %73 = trunc i32 %72 to i8
  %74 = getelementptr inbounds nuw i8, ptr %1, i64 18
  store i8 %73, ptr %70, align 1, !tbaa !6
  %75 = load i32, ptr %66, align 4, !tbaa !6
  %76 = lshr i32 %75, 8
  %77 = trunc i32 %76 to i8
  %78 = getelementptr inbounds nuw i8, ptr %1, i64 19
  store i8 %77, ptr %74, align 1, !tbaa !6
  %79 = load i32, ptr %66, align 4, !tbaa !6
  %80 = trunc i32 %79 to i8
  store i8 %80, ptr %78, align 1, !tbaa !6
  ret void
}